target datalayout = "e-m:e-p270:32:32-p271:32:32-p272:64:64-i64:64-i128:128-f80:128-n8:16:32:64-S128"
target triple = "x86_64-pc-linux-gnu"

@hf_form_name = internal global i32 0, align 4
@hf_form_flags = internal global i32 0, align 4
@hf_form_width = internal global i32 0, align 4
@hf_form_height = internal global i32 0, align 4
@hf_form_left_margin = internal global i32 0, align 4
@hf_form_top_margin = internal global i32 0, align 4
@hf_form_horiz_len = internal global i32 0, align 4
@hf_form_vert_len = internal global i32 0, align 4
@ett_FORM_REL = internal global i32 0, align 4
@.str.757 = private unnamed_addr constant [5 x i8] c": %s\00", align 1
@.str.1236 = private unnamed_addr constant [5 x i8] c"Form\00", align 1

; Function Attrs: nounwind uwtable
define internal i32 @dissect_FORM_REL(ptr noundef %0, i32 noundef %1, ptr noundef %2, ptr noundef %3, ptr noundef %4, ptr noundef %5, i32 noundef %6) #0 {
  %8 = alloca ptr, align 8
  %9 = alloca i32, align 4
  %10 = alloca ptr, align 8
  %11 = alloca ptr, align 8
  %12 = alloca ptr, align 8
  %13 = alloca ptr, align 8
  %14 = alloca i32, align 4
  %15 = alloca ptr, align 8
  %16 = alloca ptr, align 8
  %17 = alloca i32, align 4
  %18 = alloca i32, align 4
  %19 = alloca ptr, align 8
  store ptr %0, ptr %8, align 8
  store i32 %1, ptr %9, align 4
  store ptr %2, ptr %10, align 8
  store ptr %3, ptr %11, align 8
  store ptr %4, ptr %12, align 8
  store ptr %5, ptr %13, align 8
  store i32 %6, ptr %14, align 4
  %20 = load i32, ptr %9, align 4
  store i32 %20, ptr %18, align 4
  store ptr null, ptr %19, align 8
  %21 = load ptr, ptr %11, align 8
  %22 = load ptr, ptr %8, align 8
  %23 = load i32, ptr %9, align 4
  %24 = load i32, ptr @ett_FORM_REL, align 4
  %25 = call ptr @proto_tree_add_subtree(ptr noundef %21, ptr noundef %22, i32 noundef %23, i32 noundef 0, i32 noundef %24, ptr noundef %15, ptr noundef @.str.1236)
  store ptr %25, ptr %16, align 8
  %26 = load ptr, ptr %8, align 8
  %27 = load i32, ptr %9, align 4
  %28 = load ptr, ptr %10, align 8
  %29 = load ptr, ptr %16, align 8
  %30 = load ptr, ptr %12, align 8
  %31 = load ptr, ptr %13, align 8
  %32 = load i32, ptr @hf_form_flags, align 4
  %33 = call i32 @dissect_ndr_uint32(ptr noundef %26, i32 noundef %27, ptr noundef %28, ptr noundef %29, ptr noundef %30, ptr noundef %31, i32 noundef %32, ptr noundef %17)
  store i32 %33, ptr %9, align 4
  %34 = load ptr, ptr %8, align 8
  %35 = load i32, ptr %9, align 4
  %36 = load ptr, ptr %10, align 8
  %37 = load ptr, ptr %16, align 8
  %38 = load ptr, ptr %12, align 8
  %39 = load ptr, ptr %13, align 8
  %40 = load i32, ptr @hf_form_name, align 4
  %41 = load i32, ptr %14, align 4
  %42 = call i32 @dissect_spoolss_relstr(ptr noundef %34, i32 noundef %35, ptr noundef %36, ptr noundef %37, ptr noundef %38, ptr noundef %39, i32 noundef %40, i32 noundef %41, ptr noundef %19)
  store i32 %42, ptr %9, align 4
  %43 = load ptr, ptr %19, align 8
  %44 = icmp ne ptr %43, null
  br i1 %44, label %45, label %48

45:                                               ; preds = %7
  %46 = load ptr, ptr %15, align 8
  %47 = load ptr, ptr %19, align 8
  call void (ptr, ptr, ...) @proto_item_append_text(ptr noundef %46, ptr noundef @.str.757, ptr noundef %47)
  br label %48

48:                                               ; preds = %45, %7
  %49 = load ptr, ptr %8, align 8
  %50 = load i32, ptr %9, align 4
  %51 = load ptr, ptr %10, align 8
  %52 = load ptr, ptr %16, align 8
  %53 = load ptr, ptr %12, align 8
  %54 = load ptr, ptr %13, align 8
  %55 = load i32, ptr @hf_form_width, align 4
  %56 = call i32 @dissect_ndr_uint32(ptr noundef %49, i32 noundef %50, ptr noundef %51, ptr noundef %52, ptr noundef %53, ptr noundef %54, i32 noundef %55, ptr noundef null)
  store i32 %56, ptr %9, align 4
  %57 = load ptr, ptr %8, align 8
  %58 = load i32, ptr %9, align 4
  %59 = load ptr, ptr %10, align 8
  %60 = load ptr, ptr %16, align 8
  %61 = load ptr, ptr %12, align 8
  %62 = load ptr, ptr %13, align 8
  %63 = load i32, ptr @hf_form_height, align 4
  %64 = call i32 @dissect_ndr_uint32(ptr noundef %57, i32 noundef %58, ptr noundef %59, ptr noundef %60, ptr noundef %61, ptr noundef %62, i32 noundef %63, ptr noundef null)
  store i32 %64, ptr %9, align 4
  %65 = load ptr, ptr %8, align 8
  %66 = load i32, ptr %9, align 4
  %67 = load ptr, ptr %10, align 8
  %68 = load ptr, ptr %16, align 8
  %69 = load ptr, ptr %12, align 8
  %70 = load ptr, ptr %13, align 8
  %71 = load i32, ptr @hf_form_left_margin, align 4
  %72 = call i32 @dissect_ndr_uint32(ptr noundef %65, i32 noundef %66, ptr noundef %67, ptr noundef %68, ptr noundef %69, ptr noundef %70, i32 noundef %71, ptr noundef null)
  store i32 %72, ptr %9, align 4
  %73 = load ptr, ptr %8, align 8
  %74 = load i32, ptr %9, align 4
  %75 = load ptr, ptr %10, align 8
  %76 = load ptr, ptr %16, align 8
  %77 = load ptr, ptr %12, align 8
  %78 = load ptr, ptr %13, align 8
  %79 = load i32, ptr @hf_form_top_margin, align 4
  %80 = call i32 @dissect_ndr_uint32(ptr noundef %73, i32 noundef %74, ptr noundef %75, ptr noundef %76, ptr noundef %77, ptr noundef %78, i32 noundef %79, ptr noundef null)
  store i32 %80, ptr %9, align 4
  %81 = load ptr, ptr %8, align 8
  %82 = load i32, ptr %9, align 4
  %83 = load ptr, ptr %10, align 8
  %84 = load ptr, ptr %16, align 8
  %85 = load ptr, ptr %12, align 8
  %86 = load ptr, ptr %13, align 8
  %87 = load i32, ptr @hf_form_horiz_len, align 4
  %88 = call i32 @dissect_ndr_uint32(ptr noundef %81, i32 noundef %82, ptr noundef %83, ptr noundef %84, ptr noundef %85, ptr noundef %86, i32 noundef %87, ptr noundef null)
  store i32 %88, ptr %9, align 4
  %89 = load ptr, ptr %8, align 8
  %90 = load i32, ptr %9, align 4
  %91 = load ptr, ptr %10, align 8
  %92 = load ptr, ptr %16, align 8
  %93 = load ptr, ptr %12, align 8
  %94 = load ptr, ptr %13, align 8
  %95 = load i32, ptr @hf_form_vert_len, align 4
  %96 = call i32 @dissect_ndr_uint32(ptr noundef %89, i32 noundef %90, ptr noundef %91, ptr noundef %92, ptr noundef %93, ptr noundef %94, i32 noundef %95, ptr noundef null)
  store i32 %96, ptr %9, align 4
  %97 = load ptr, ptr %15, align 8
  %98 = load i32, ptr %9, align 4
  %99 = load i32, ptr %18, align 4
  %100 = sub i32 %98, %99
  call void @proto_item_set_len(ptr noundef %97, i32 noundef %100)
  %101 = load i32, ptr %9, align 4
  ret i32 %101
}