; Function Attrs: nounwind uwtable
define internal fastcc i32 @dissect_FORM_REL(ptr noundef %0, i32 noundef %1, ptr noundef %2, ptr noundef %3, ptr noundef %4, ptr noundef %5, i32 noundef %6) unnamed_addr #0 {
  %8 = alloca ptr, align 8
  %9 = alloca i32, align 4
  %10 = alloca ptr, align 8
  store ptr null, ptr %10, align 8
  %11 = load i32, ptr @ett_FORM_REL, align 4
  %12 = call ptr @proto_tree_add_subtree(ptr noundef %3, ptr noundef %0, i32 noundef %1, i32 noundef 0, i32 noundef %11, ptr noundef nonnull %8, ptr noundef nonnull @.str.1236) #5
  %13 = load i32, ptr @hf_form_flags, align 4
  %14 = call i32 @dissect_ndr_uint32(ptr noundef %0, i32 noundef %1, ptr noundef %2, ptr noundef %12, ptr noundef %4, ptr noundef %5, i32 noundef %13, ptr noundef nonnull %9) #5
  %15 = load i32, ptr @hf_form_name, align 4
  %16 = call fastcc i32 @dissect_spoolss_relstr(ptr noundef %0, i32 noundef %14, ptr noundef %2, ptr noundef %12, ptr noundef %4, ptr noundef %5, i32 noundef %15, i32 noundef %6, ptr noundef nonnull %10)
  %17 = load ptr, ptr %10, align 8
  %.not = icmp eq ptr %17, null
  br i1 %.not, label %20, label %18

18:                                               ; preds = %7
  %19 = load ptr, ptr %8, align 8
  call void (ptr, ptr, ...) @proto_item_append_text(ptr noundef %19, ptr noundef nonnull @.str.757, ptr noundef nonnull %17) #5
  br label %20

20:                                               ; preds = %18, %7
  %21 = load i32, ptr @hf_form_width, align 4
  %22 = call i32 @dissect_ndr_uint32(ptr noundef %0, i32 noundef %16, ptr noundef %2, ptr noundef %12, ptr noundef %4, ptr noundef %5, i32 noundef %21, ptr noundef null) #5
  %23 = load i32, ptr @hf_form_height, align 4
  %24 = call i32 @dissect_ndr_uint32(ptr noundef %0, i32 noundef %22, ptr noundef %2, ptr noundef %12, ptr noundef %4, ptr noundef %5, i32 noundef %23, ptr noundef null) #5
  %25 = load i32, ptr @hf_form_left_margin, align 4
  %26 = call i32 @dissect_ndr_uint32(ptr noundef %0, i32 noundef %24, ptr noundef %2, ptr noundef %12, ptr noundef %4, ptr noundef %5, i32 noundef %25, ptr noundef null) #5
  %27 = load i32, ptr @hf_form_top_margin, align 4
  %28 = call i32 @dissect_ndr_uint32(ptr noundef %0, i32 noundef %26, ptr noundef %2, ptr noundef %12, ptr noundef %4, ptr noundef %5, i32 noundef %27, ptr noundef null) #5
  %29 = load i32, ptr @hf_form_horiz_len, align 4
  %30 = call i32 @dissect_ndr_uint32(ptr noundef %0, i32 noundef %28, ptr noundef %2, ptr noundef %12, ptr noundef %4, ptr noundef %5, i32 noundef %29, ptr noundef null) #5
  %31 = load i32, ptr @hf_form_vert_len, align 4
  %32 = call i32 @dissect_ndr_uint32(ptr noundef %0, i32 noundef %30, ptr noundef %2, ptr noundef %12, ptr noundef %4, ptr noundef %5, i32 noundef %31, ptr noundef null) #5
  %33 = load ptr, ptr %8, align 8
  %34 = sub i32 %32, %1
  call void @proto_item_set_len(ptr noundef %33, i32 noundef %34) #5
  ret i32 %32
}